target datalayout = "e-m:e-p270:32:32-p271:32:32-p272:64:64-i64:64-i128:128-f80:128-n8:16:32:64-S128"
target triple = "x86_64-pc-linux-gnu"

%struct.ident_t = type { i32, i32, i32, i32, ptr }
%"class.std::__cxx11::basic_string" = type { %"struct.std::__cxx11::basic_string<char>::_Alloc_hider", i64, %union.anon }
%"struct.std::__cxx11::basic_string<char>::_Alloc_hider" = type { ptr }
%union.anon = type { i64, [8 x i8] }
%"struct.faiss::Index" = type <{ ptr, i32, [4 x i8], i64, i8, i8, [2 x i8], i32, float, [4 x i8] }>

@.str.1 = private unnamed_addr constant [19 x i8] c"Error: '%s' failed\00", align 1
@.str.3 = private unnamed_addr constant [111 x i8] c"generated/home/dtcxzyw/WorkSpace/Projects/compilers/llvm-opt-benchmark/bench/faiss/faiss/faiss/MetaIndexes.cpp\00", align 1
@_ZTIN5faiss14FaissExceptionE = external constant ptr
@.str.7 = private unnamed_addr constant [63 x i8] c"Error: '%s' failed: search params not supported for this index\00", align 1
@.str.8 = private unnamed_addr constant [8 x i8] c"!params\00", align 1
@__PRETTY_FUNCTION__._ZNK5faiss11IndexRandom6searchElPKflPfPlPKNS_16SearchParametersE = private unnamed_addr constant [119 x i8] c"virtual void faiss::IndexRandom::search(idx_t, const float *, idx_t, float *, idx_t *, const SearchParameters *) const\00", align 1
@.str.15 = private unnamed_addr constant [12 x i8] c"k <= ntotal\00", align 1
@2 = private unnamed_addr constant %struct.ident_t { i32 0, i32 2, i32 0, i32 22, ptr @0 }, align 8

; Function Attrs: mustprogress uwtable
define void @_ZNK5faiss11IndexRandom6searchElPKflPfPlPKNS_16SearchParametersE(ptr noundef nonnull align 8 dereferenceable(48) %0, i64 noundef %1, ptr noundef %2, i64 noundef %3, ptr noundef %4, ptr noundef %5, ptr noundef %6) unnamed_addr #1 align 2 personality ptr @__gxx_personality_v0 {
  %8 = alloca ptr, align 8
  %9 = alloca i64, align 8
  %10 = alloca ptr, align 8
  %11 = alloca i64, align 8
  %12 = alloca ptr, align 8
  %13 = alloca ptr, align 8
  %14 = alloca ptr, align 8
  %15 = alloca %"class.std::__cxx11::basic_string", align 8
  %16 = alloca i32, align 4
  %17 = alloca ptr, align 8
  %18 = alloca i32, align 4
  %19 = alloca %"class.std::__cxx11::basic_string", align 8
  %20 = alloca i32, align 4
  %21 = alloca i32, align 4
  %22 = alloca i32, align 4
  %23 = call i32 @__kmpc_global_thread_num(ptr @2)
  store ptr %0, ptr %8, align 8
  store i64 %1, ptr %9, align 8
  store ptr %2, ptr %10, align 8
  store i64 %3, ptr %11, align 8
  store ptr %4, ptr %12, align 8
  store ptr %5, ptr %13, align 8
  store ptr %6, ptr %14, align 8
  %24 = load ptr, ptr %8, align 8
  br label %25

25:                                               ; preds = %7
  %26 = load ptr, ptr %14, align 8
  %27 = icmp ne ptr %26, null
  br i1 %27, label %28, label %51

28:                                               ; preds = %25
  br label %29

29:                                               ; preds = %28
  call void @_ZNSt7__cxx1112basic_stringIcSt11char_traitsIcESaIcEEC1Ev(ptr noundef nonnull align 8 dereferenceable(32) %15) #5
  %30 = call i32 (ptr, i64, ptr, ...) @snprintf(ptr noundef null, i64 noundef 0, ptr noundef @.str.7, ptr noundef @.str.8) #5
  store i32 %30, ptr %16, align 4
  %31 = load i32, ptr %16, align 4
  %32 = add nsw i32 %31, 1
  %33 = sext i32 %32 to i64
  invoke void @_ZNSt7__cxx1112basic_stringIcSt11char_traitsIcESaIcEE6resizeEm(ptr noundef nonnull align 8 dereferenceable(32) %15, i64 noundef %33)
          to label %34 unwind label %41

34:                                               ; preds = %29
  %35 = invoke noundef nonnull align 1 dereferenceable(1) ptr @_ZNSt7__cxx1112basic_stringIcSt11char_traitsIcESaIcEEixEm(ptr noundef nonnull align 8 dereferenceable(32) %15, i64 noundef 0)
          to label %36 unwind label %41

36:                                               ; preds = %34
  %37 = call noundef i64 @_ZNKSt7__cxx1112basic_stringIcSt11char_traitsIcESaIcEE4sizeEv(ptr noundef nonnull align 8 dereferenceable(32) %15) #5
  %38 = call i32 (ptr, i64, ptr, ...) @snprintf(ptr noundef %35, i64 noundef %37, ptr noundef @.str.7, ptr noundef @.str.8) #5
  %39 = call ptr @__cxa_allocate_exception(i64 40) #5
  invoke void @_ZN5faiss14FaissExceptionC1ERKNSt7__cxx1112basic_stringIcSt11char_traitsIcESaIcEEEPKcSA_i(ptr noundef nonnull align 8 dereferenceable(40) %39, ptr noundef nonnull align 8 dereferenceable(32) %15, ptr noundef @__PRETTY_FUNCTION__._ZNK5faiss11IndexRandom6searchElPKflPfPlPKNS_16SearchParametersE, ptr noundef @.str.3, i32 noundef 185)
          to label %40 unwind label %45

40:                                               ; preds = %36
  invoke void @__cxa_throw(ptr %39, ptr @_ZTIN5faiss14FaissExceptionE, ptr @_ZN5faiss14FaissExceptionD2Ev) #16
          to label %93 unwind label %41

41:                                               ; preds = %40, %34, %29
  %42 = landingpad { ptr, i32 }
          cleanup
  %43 = extractvalue { ptr, i32 } %42, 0
  store ptr %43, ptr %17, align 8
  %44 = extractvalue { ptr, i32 } %42, 1
  store i32 %44, ptr %18, align 4
  br label %49

45:                                               ; preds = %36
  %46 = landingpad { ptr, i32 }
          cleanup
  %47 = extractvalue { ptr, i32 } %46, 0
  store ptr %47, ptr %17, align 8
  %48 = extractvalue { ptr, i32 } %46, 1
  store i32 %48, ptr %18, align 4
  call void @__cxa_free_exception(ptr %39) #5
  br label %49

49:                                               ; preds = %45, %41
  call void @_ZNSt7__cxx1112basic_stringIcSt11char_traitsIcESaIcEED1Ev(ptr noundef nonnull align 8 dereferenceable(32) %15) #5
  br label %88

50:                                               ; No predecessors!
  br label %51

51:                                               ; preds = %50, %25
  br label %52

52:                                               ; preds = %51
  br label %53

53:                                               ; preds = %52
  %54 = load i64, ptr %11, align 8
  %55 = getelementptr inbounds %"struct.faiss::Index", ptr %24, i32 0, i32 3
  %56 = load i64, ptr %55, align 8
  %57 = icmp sle i64 %54, %56
  br i1 %57, label %81, label %58

58:                                               ; preds = %53
  br label %59

59:                                               ; preds = %58
  call void @_ZNSt7__cxx1112basic_stringIcSt11char_traitsIcESaIcEEC1Ev(ptr noundef nonnull align 8 dereferenceable(32) %19) #5
  %60 = call i32 (ptr, i64, ptr, ...) @snprintf(ptr noundef null, i64 noundef 0, ptr noundef @.str.1, ptr noundef @.str.15) #5
  store i32 %60, ptr %20, align 4
  %61 = load i32, ptr %20, align 4
  %62 = add nsw i32 %61, 1
  %63 = sext i32 %62 to i64
  invoke void @_ZNSt7__cxx1112basic_stringIcSt11char_traitsIcESaIcEE6resizeEm(ptr noundef nonnull align 8 dereferenceable(32) %19, i64 noundef %63)
          to label %64 unwind label %71

64:                                               ; preds = %59
  %65 = invoke noundef nonnull align 1 dereferenceable(1) ptr @_ZNSt7__cxx1112basic_stringIcSt11char_traitsIcESaIcEEixEm(ptr noundef nonnull align 8 dereferenceable(32) %19, i64 noundef 0)
          to label %66 unwind label %71

66:                                               ; preds = %64
  %67 = call noundef i64 @_ZNKSt7__cxx1112basic_stringIcSt11char_traitsIcESaIcEE4sizeEv(ptr noundef nonnull align 8 dereferenceable(32) %19) #5
  %68 = call i32 (ptr, i64, ptr, ...) @snprintf(ptr noundef %65, i64 noundef %67, ptr noundef @.str.1, ptr noundef @.str.15) #5
  %69 = call ptr @__cxa_allocate_exception(i64 40) #5
  invoke void @_ZN5faiss14FaissExceptionC1ERKNSt7__cxx1112basic_stringIcSt11char_traitsIcESaIcEEEPKcSA_i(ptr noundef nonnull align 8 dereferenceable(40) %69, ptr noundef nonnull align 8 dereferenceable(32) %19, ptr noundef @__PRETTY_FUNCTION__._ZNK5faiss11IndexRandom6searchElPKflPfPlPKNS_16SearchParametersE, ptr noundef @.str.3, i32 noundef 186)
          to label %70 unwind label %75

70:                                               ; preds = %66
  invoke void @__cxa_throw(ptr %69, ptr @_ZTIN5faiss14FaissExceptionE, ptr @_ZN5faiss14FaissExceptionD2Ev) #16
          to label %93 unwind label %71

71:                                               ; preds = %70, %64, %59
  %72 = landingpad { ptr, i32 }
          cleanup
  %73 = extractvalue { ptr, i32 } %72, 0
  store ptr %73, ptr %17, align 8
  %74 = extractvalue { ptr, i32 } %72, 1
  store i32 %74, ptr %18, align 4
  br label %79

75:                                               ; preds = %66
  %76 = landingpad { ptr, i32 }
          cleanup
  %77 = extractvalue { ptr, i32 } %76, 0
  store ptr %77, ptr %17, align 8
  %78 = extractvalue { ptr, i32 } %76, 1
  store i32 %78, ptr %18, align 4
  call void @__cxa_free_exception(ptr %69) #5
  br label %79

79:                                               ; preds = %75, %71
  call void @_ZNSt7__cxx1112basic_stringIcSt11char_traitsIcESaIcEED1Ev(ptr noundef nonnull align 8 dereferenceable(32) %19) #5
  br label %88

80:                                               ; No predecessors!
  br label %81

81:                                               ; preds = %80, %53
  br label %82

82:                                               ; preds = %81
  %83 = load i64, ptr %9, align 8
  %84 = icmp sgt i64 %83, 1000
  br i1 %84, label %85, label %86

85:                                               ; preds = %82
  call void (ptr, i32, ptr, ...) @__kmpc_fork_call(ptr @2, i32 6, ptr @_ZNK5faiss11IndexRandom6searchElPKflPfPlPKNS_16SearchParametersE.omp_outlined, ptr %9, ptr %24, ptr %10, ptr %13, ptr %11, ptr %12)
  br label %87

86:                                               ; preds = %82
  call void @__kmpc_serialized_parallel(ptr @2, i32 %23)
  store i32 %23, ptr %21, align 4
  store i32 0, ptr %22, align 4
  call void @_ZNK5faiss11IndexRandom6searchElPKflPfPlPKNS_16SearchParametersE.omp_outlined(ptr %21, ptr %22, ptr %9, ptr %24, ptr %10, ptr %13, ptr %11, ptr %12) #5
  call void @__kmpc_end_serialized_parallel(ptr @2, i32 %23)
  br label %87

87:                                               ; preds = %86, %85
  ret void

88:                                               ; preds = %79, %49
  %89 = load ptr, ptr %17, align 8
  %90 = load i32, ptr %18, align 4
  %91 = insertvalue { ptr, i32 } poison, ptr %89, 0
  %92 = insertvalue { ptr, i32 } %91, i32 %90, 1
  resume { ptr, i32 } %92

93:                                               ; preds = %70, %40
  unreachable
}