; Function Attrs: mustprogress uwtable
define void @_ZNK5faiss11IndexRandom6searchElPKflPfPlPKNS_16SearchParametersE(ptr noundef nonnull align 8 dereferenceable(48) %0, i64 noundef %1, ptr noundef %2, i64 noundef %3, ptr noundef %4, ptr noundef %5, ptr noundef readnone %6) unnamed_addr #3 align 2 personality ptr @__gxx_personality_v0 {
  %8 = alloca i64, align 8
  %9 = alloca ptr, align 8
  %10 = alloca i64, align 8
  %11 = alloca ptr, align 8
  %12 = alloca ptr, align 8
  %13 = alloca %"class.std::__cxx11::basic_string", align 8
  %14 = alloca %"class.std::__cxx11::basic_string", align 8
  %15 = alloca i32, align 4
  %16 = tail call i32 @__kmpc_global_thread_num(ptr nonnull @2)
  store i64 %1, ptr %8, align 8
  store ptr %2, ptr %9, align 8
  store i64 %3, ptr %10, align 8
  store ptr %4, ptr %11, align 8
  store ptr %5, ptr %12, align 8
  %.not = icmp eq ptr %6, null
  br i1 %.not, label %32, label %17

17:                                               ; preds = %7
  call void @_ZNSt7__cxx1112basic_stringIcSt11char_traitsIcESaIcEEC1Ev(ptr noundef nonnull align 8 dereferenceable(32) %13) #16
  %18 = call i32 (ptr, i64, ptr, ...) @snprintf(ptr noundef null, i64 noundef 0, ptr noundef nonnull @.str.7, ptr noundef nonnull @.str.8) #16
  %19 = add nsw i32 %18, 1
  %20 = sext i32 %19 to i64
  invoke void @_ZNSt7__cxx1112basic_stringIcSt11char_traitsIcESaIcEE6resizeEm(ptr noundef nonnull align 8 dereferenceable(32) %13, i64 noundef %20)
          to label %21 unwind label %28

21:                                               ; preds = %17
  %22 = invoke noundef nonnull align 1 dereferenceable(1) ptr @_ZNSt7__cxx1112basic_stringIcSt11char_traitsIcESaIcEEixEm(ptr noundef nonnull align 8 dereferenceable(32) %13, i64 noundef 0)
          to label %23 unwind label %28

23:                                               ; preds = %21
  %24 = call noundef i64 @_ZNKSt7__cxx1112basic_stringIcSt11char_traitsIcESaIcEE4sizeEv(ptr noundef nonnull align 8 dereferenceable(32) %13) #16
  %25 = call i32 (ptr, i64, ptr, ...) @snprintf(ptr noundef nonnull %22, i64 noundef %24, ptr noundef nonnull @.str.7, ptr noundef nonnull @.str.8) #16
  %26 = call ptr @__cxa_allocate_exception(i64 40) #16
  invoke void @_ZN5faiss14FaissExceptionC1ERKNSt7__cxx1112basic_stringIcSt11char_traitsIcESaIcEEEPKcSA_i(ptr noundef nonnull align 8 dereferenceable(40) %26, ptr noundef nonnull align 8 dereferenceable(32) %13, ptr noundef nonnull @__PRETTY_FUNCTION__._ZNK5faiss11IndexRandom6searchElPKflPfPlPKNS_16SearchParametersE, ptr noundef nonnull @.str.3, i32 noundef 185)
          to label %27 unwind label %30

27:                                               ; preds = %23
  invoke void @__cxa_throw(ptr nonnull %26, ptr nonnull @_ZTIN5faiss14FaissExceptionE, ptr nonnull @_ZN5faiss14FaissExceptionD2Ev) #21
          to label %56 unwind label %28

28:                                               ; preds = %27, %21, %17
  %29 = landingpad { ptr, i32 }
          cleanup
  br label %55

30:                                               ; preds = %23
  %31 = landingpad { ptr, i32 }
          cleanup
  call void @__cxa_free_exception(ptr %26) #16
  br label %55

32:                                               ; preds = %7
  %33 = getelementptr inbounds i8, ptr %0, i64 16
  %34 = load i64, ptr %33, align 8
  %.not8 = icmp slt i64 %34, %3
  br i1 %.not8, label %35, label %50

35:                                               ; preds = %32
  call void @_ZNSt7__cxx1112basic_stringIcSt11char_traitsIcESaIcEEC1Ev(ptr noundef nonnull align 8 dereferenceable(32) %14) #16
  %36 = call i32 (ptr, i64, ptr, ...) @snprintf(ptr noundef null, i64 noundef 0, ptr noundef nonnull @.str.1, ptr noundef nonnull @.str.15) #16
  %37 = add nsw i32 %36, 1
  %38 = sext i32 %37 to i64
  invoke void @_ZNSt7__cxx1112basic_stringIcSt11char_traitsIcESaIcEE6resizeEm(ptr noundef nonnull align 8 dereferenceable(32) %14, i64 noundef %38)
          to label %39 unwind label %46

39:                                               ; preds = %35
  %40 = invoke noundef nonnull align 1 dereferenceable(1) ptr @_ZNSt7__cxx1112basic_stringIcSt11char_traitsIcESaIcEEixEm(ptr noundef nonnull align 8 dereferenceable(32) %14, i64 noundef 0)
          to label %41 unwind label %46

41:                                               ; preds = %39
  %42 = call noundef i64 @_ZNKSt7__cxx1112basic_stringIcSt11char_traitsIcESaIcEE4sizeEv(ptr noundef nonnull align 8 dereferenceable(32) %14) #16
  %43 = call i32 (ptr, i64, ptr, ...) @snprintf(ptr noundef nonnull %40, i64 noundef %42, ptr noundef nonnull @.str.1, ptr noundef nonnull @.str.15) #16
  %44 = call ptr @__cxa_allocate_exception(i64 40) #16
  invoke void @_ZN5faiss14FaissExceptionC1ERKNSt7__cxx1112basic_stringIcSt11char_traitsIcESaIcEEEPKcSA_i(ptr noundef nonnull align 8 dereferenceable(40) %44, ptr noundef nonnull align 8 dereferenceable(32) %14, ptr noundef nonnull @__PRETTY_FUNCTION__._ZNK5faiss11IndexRandom6searchElPKflPfPlPKNS_16SearchParametersE, ptr noundef nonnull @.str.3, i32 noundef 186)
          to label %45 unwind label %48

45:                                               ; preds = %41
  invoke void @__cxa_throw(ptr nonnull %44, ptr nonnull @_ZTIN5faiss14FaissExceptionE, ptr nonnull @_ZN5faiss14FaissExceptionD2Ev) #21
          to label %56 unwind label %46

46:                                               ; preds = %45, %39, %35
  %47 = landingpad { ptr, i32 }
          cleanup
  br label %55

48:                                               ; preds = %41
  %49 = landingpad { ptr, i32 }
          cleanup
  call void @__cxa_free_exception(ptr %44) #16
  br label %55

50:                                               ; preds = %32
  %51 = icmp sgt i64 %1, 1000
  br i1 %51, label %52, label %53

52:                                               ; preds = %50
  call void (ptr, i32, ptr, ...) @__kmpc_fork_call(ptr nonnull @2, i32 6, ptr nonnull @_ZNK5faiss11IndexRandom6searchElPKflPfPlPKNS_16SearchParametersE.omp_outlined, ptr nonnull %8, ptr nonnull %0, ptr nonnull %9, ptr nonnull %12, ptr nonnull %10, ptr nonnull %11)
  br label %54

53:                                               ; preds = %50
  tail call void @__kmpc_serialized_parallel(ptr nonnull @2, i32 %16)
  store i32 %16, ptr %15, align 4
  call void @_ZNK5faiss11IndexRandom6searchElPKflPfPlPKNS_16SearchParametersE.omp_outlined(ptr nonnull %15, ptr nonnull poison, ptr %8, ptr nonnull %0, ptr %9, ptr %12, ptr %10, ptr %11) #16
  tail call void @__kmpc_end_serialized_parallel(ptr nonnull @2, i32 %16)
  br label %54

54:                                               ; preds = %53, %52
  ret void

55:                                               ; preds = %46, %48, %28, %30
  %.sink = phi ptr [ %13, %30 ], [ %13, %28 ], [ %14, %48 ], [ %14, %46 ]
  %.pn10.pn = phi { ptr, i32 } [ %31, %30 ], [ %29, %28 ], [ %49, %48 ], [ %47, %46 ]
  call void @_ZNSt7__cxx1112basic_stringIcSt11char_traitsIcESaIcEED1Ev(ptr noundef nonnull align 8 dereferenceable(32) %.sink) #16
  resume { ptr, i32 } %.pn10.pn

56:                                               ; preds = %45, %27
  unreachable
}